target datalayout = "e-m:e-p270:32:32-p271:32:32-p272:64:64-i64:64-i128:128-f80:128-n8:16:32:64-S128"
target triple = "x86_64-pc-linux-gnu"

%struct.SwsMatrix3x3 = type { [3 x [3 x float]] }

; Function Attrs: nounwind uwtable
define void @ff_sws_matrix3x3_apply(ptr noundef %0, ptr noundef %1) #0 {
  %3 = alloca ptr, align 8
  %4 = alloca ptr, align 8
  %5 = alloca float, align 4
  %6 = alloca float, align 4
  %7 = alloca float, align 4
  %8 = alloca i32, align 4
  store ptr %0, ptr %3, align 8, !tbaa !4
  store ptr %1, ptr %4, align 8, !tbaa !17
  call void @llvm.lifetime.start.p0(i64 4, ptr %5) #7
  %9 = load ptr, ptr %4, align 8, !tbaa !17
  %10 = getelementptr inbounds float, ptr %9, i64 0
  %11 = load float, ptr %10, align 4, !tbaa !9
  store float %11, ptr %5, align 4, !tbaa !9
  call void @llvm.lifetime.start.p0(i64 4, ptr %6) #7
  %12 = load ptr, ptr %4, align 8, !tbaa !17
  %13 = getelementptr inbounds float, ptr %12, i64 1
  %14 = load float, ptr %13, align 4, !tbaa !9
  store float %14, ptr %6, align 4, !tbaa !9
  call void @llvm.lifetime.start.p0(i64 4, ptr %7) #7
  %15 = load ptr, ptr %4, align 8, !tbaa !17
  %16 = getelementptr inbounds float, ptr %15, i64 2
  %17 = load float, ptr %16, align 4, !tbaa !9
  store float %17, ptr %7, align 4, !tbaa !9
  call void @llvm.lifetime.start.p0(i64 4, ptr %8) #7
  store i32 0, ptr %8, align 4, !tbaa !11
  br label %18

18:                                               ; preds = %54, %2
  %19 = load i32, ptr %8, align 4, !tbaa !11
  %20 = icmp slt i32 %19, 3
  br i1 %20, label %22, label %21

21:                                               ; preds = %18
  call void @llvm.lifetime.end.p0(i64 4, ptr %8) #7
  br label %57

22:                                               ; preds = %18
  %23 = load ptr, ptr %3, align 8, !tbaa !4
  %24 = getelementptr inbounds nuw %struct.SwsMatrix3x3, ptr %23, i32 0, i32 0
  %25 = load i32, ptr %8, align 4, !tbaa !11
  %26 = sext i32 %25 to i64
  %27 = getelementptr inbounds [3 x [3 x float]], ptr %24, i64 0, i64 %26
  %28 = getelementptr inbounds [3 x float], ptr %27, i64 0, i64 0
  %29 = load float, ptr %28, align 4, !tbaa !9
  %30 = load float, ptr %5, align 4, !tbaa !9
  %31 = load ptr, ptr %3, align 8, !tbaa !4
  %32 = getelementptr inbounds nuw %struct.SwsMatrix3x3, ptr %31, i32 0, i32 0
  %33 = load i32, ptr %8, align 4, !tbaa !11
  %34 = sext i32 %33 to i64
  %35 = getelementptr inbounds [3 x [3 x float]], ptr %32, i64 0, i64 %34
  %36 = getelementptr inbounds [3 x float], ptr %35, i64 0, i64 1
  %37 = load float, ptr %36, align 4, !tbaa !9
  %38 = load float, ptr %6, align 4, !tbaa !9
  %39 = fmul nsz float %37, %38
  %40 = call nsz float @llvm.fmuladd.f32(float %29, float %30, float %39)
  %41 = load ptr, ptr %3, align 8, !tbaa !4
  %42 = getelementptr inbounds nuw %struct.SwsMatrix3x3, ptr %41, i32 0, i32 0
  %43 = load i32, ptr %8, align 4, !tbaa !11
  %44 = sext i32 %43 to i64
  %45 = getelementptr inbounds [3 x [3 x float]], ptr %42, i64 0, i64 %44
  %46 = getelementptr inbounds [3 x float], ptr %45, i64 0, i64 2
  %47 = load float, ptr %46, align 4, !tbaa !9
  %48 = load float, ptr %7, align 4, !tbaa !9
  %49 = call nsz float @llvm.fmuladd.f32(float %47, float %48, float %40)
  %50 = load ptr, ptr %4, align 8, !tbaa !17
  %51 = load i32, ptr %8, align 4, !tbaa !11
  %52 = sext i32 %51 to i64
  %53 = getelementptr inbounds float, ptr %50, i64 %52
  store float %49, ptr %53, align 4, !tbaa !9
  br label %54

54:                                               ; preds = %22
  %55 = load i32, ptr %8, align 4, !tbaa !11
  %56 = add nsw i32 %55, 1
  store i32 %56, ptr %8, align 4, !tbaa !11
  br label %18, !llvm.loop !19

57:                                               ; preds = %21
  call void @llvm.lifetime.end.p0(i64 4, ptr %7) #7
  call void @llvm.lifetime.end.p0(i64 4, ptr %6) #7
  call void @llvm.lifetime.end.p0(i64 4, ptr %5) #7
  ret void
}