; Function Attrs: nofree norecurse nosync nounwind memory(argmem: readwrite) uwtable
define void @ff_sws_matrix3x3_apply(ptr noundef readonly captures(none) %0, ptr noundef captures(none) %1) local_unnamed_addr #0 {
  %3 = load float, ptr %1, align 4, !tbaa !4
  %4 = getelementptr inbounds nuw i8, ptr %1, i64 4
  %5 = load float, ptr %4, align 4, !tbaa !4
  %6 = getelementptr inbounds nuw i8, ptr %1, i64 8
  %7 = load float, ptr %6, align 4, !tbaa !4
  br label %9

8:                                                ; preds = %9
  ret void

9:                                                ; preds = %2, %9
  %indvars.iv = phi i64 [ 0, %2 ], [ %indvars.iv.next, %9 ]
  %10 = getelementptr inbounds nuw [3 x [3 x float]], ptr %0, i64 0, i64 %indvars.iv
  %11 = load float, ptr %10, align 4, !tbaa !4
  %12 = getelementptr inbounds nuw i8, ptr %10, i64 4
  %13 = load float, ptr %12, align 4, !tbaa !4
  %14 = fmul nsz float %5, %13
  %15 = tail call nsz float @llvm.fmuladd.f32(float %11, float %3, float %14)
  %16 = getelementptr inbounds nuw i8, ptr %10, i64 8
  %17 = load float, ptr %16, align 4, !tbaa !4
  %18 = tail call nsz float @llvm.fmuladd.f32(float %17, float %7, float %15)
  %19 = getelementptr inbounds nuw float, ptr %1, i64 %indvars.iv
  store float %18, ptr %19, align 4, !tbaa !4
  %indvars.iv.next = add nuw nsw i64 %indvars.iv, 1
  %exitcond.not = icmp eq i64 %indvars.iv.next, 3
  br i1 %exitcond.not, label %8, label %9, !llvm.loop !10
}